target datalayout = "e-m:e-p270:32:32-p271:32:32-p272:64:64-i64:64-i128:128-f80:128-n8:16:32:64-S128"
target triple = "x86_64-pc-linux-gnu"

%struct.AVCodecContext = type { ptr, i32, i32, ptr, i32, i32, ptr, ptr, ptr, i64, i32, i32, ptr, i32, %struct.AVRational, %struct.AVRational, %struct.AVRational, i32, i32, i32, i32, i32, %struct.AVRational, i32, i32, i32, i32, i32, i32, i32, i32, i32, i32, i32, ptr, ptr, i32, float, float, float, float, float, float, float, float, float, i32, i32, i32, i32, i32, i32, i32, i32, i32, i32, i32, i32, ptr, ptr, ptr, i32, i32, i32, i32, i32, i32, i32, i32, i32, i32, %struct.AVChannelLayout, i32, i32, i32, i32, i32, i32, i32, i32, ptr, i32, i32, i32, float, float, i32, i32, i32, i32, i32, ptr, i64, i64, float, float, i32, i32, ptr, ptr, i32, i32, i32, i32, i32, ptr, ptr, ptr, ptr, i32, i32, [8 x i64], i32, i32, i32, i32, i32, i32, i32, ptr, ptr, i32, i32, i32, i32, i32, i32, i32, i32, i32, i32, ptr, ptr, i32, i32, ptr, ptr, ptr, ptr, i32, i32, i64, i32, i32, i64, ptr, i64, ptr, i32, ptr, i32 }
%struct.AVRational = type { i32, i32 }
%struct.AVChannelLayout = type { i32, i32, %union.anon.0, ptr }
%union.anon.0 = type { i64 }
%struct.OSQContext = type { %struct.GetBitContext, [2 x %struct.OSQChannel], ptr, i64, i64, i32, i32, i32, i64, [2 x ptr], ptr, i32 }
%struct.GetBitContext = type { ptr, ptr, i32, i32, i32 }
%struct.OSQChannel = type { i32, i32, i32, i32, [3 x i32], i32, i32, double, i32 }
%struct.AVCodecInternal = type { i32, i32, i32, ptr, ptr, ptr, ptr, ptr, ptr, ptr, i32, ptr, ptr, ptr, i32, i32, ptr, i32, ptr, ptr, i32, i32 }

@.str.2 = private unnamed_addr constant [22 x i8] c"Unsupported version.\0A\00", align 1

; Function Attrs: cold nounwind optsize uwtable
define internal i32 @osq_init(ptr noundef %0) #0 {
  %2 = alloca i32, align 4
  %3 = alloca ptr, align 8
  %4 = alloca ptr, align 8
  %5 = alloca i32, align 4
  %6 = alloca i32, align 4
  store ptr %0, ptr %3, align 8, !tbaa !4
  call void @llvm.lifetime.start.p0(i64 8, ptr %4) #10
  %7 = load ptr, ptr %3, align 8, !tbaa !4
  %8 = getelementptr inbounds nuw %struct.AVCodecContext, ptr %7, i32 0, i32 6
  %9 = load ptr, ptr %8, align 8, !tbaa !9
  store ptr %9, ptr %4, align 8, !tbaa !29
  %10 = load ptr, ptr %3, align 8, !tbaa !4
  %11 = getelementptr inbounds nuw %struct.AVCodecContext, ptr %10, i32 0, i32 13
  %12 = load i32, ptr %11, align 8, !tbaa !31
  %13 = icmp slt i32 %12, 48
  br i1 %13, label %14, label %15

14:                                               ; preds = %1
  store i32 -22, ptr %2, align 4
  store i32 1, ptr %5, align 4
  br label %180

15:                                               ; preds = %1
  %16 = load ptr, ptr %3, align 8, !tbaa !4
  %17 = getelementptr inbounds nuw %struct.AVCodecContext, ptr %16, i32 0, i32 12
  %18 = load ptr, ptr %17, align 8, !tbaa !32
  %19 = getelementptr inbounds i8, ptr %18, i64 0
  %20 = load i8, ptr %19, align 1, !tbaa !33
  %21 = zext i8 %20 to i32
  %22 = icmp ne i32 %21, 1
  br i1 %22, label %23, label %25

23:                                               ; preds = %15
  %24 = load ptr, ptr %3, align 8, !tbaa !4
  call void (ptr, i32, ptr, ...) @av_log(ptr noundef %24, i32 noundef 16, ptr noundef @.str.2)
  store i32 -1094995529, ptr %2, align 4
  store i32 1, ptr %5, align 4
  br label %180

25:                                               ; preds = %15
  %26 = load ptr, ptr %3, align 8, !tbaa !4
  %27 = getelementptr inbounds nuw %struct.AVCodecContext, ptr %26, i32 0, i32 12
  %28 = load ptr, ptr %27, align 8, !tbaa !32
  %29 = getelementptr inbounds i8, ptr %28, i64 4
  %30 = load i32, ptr %29, align 1, !tbaa !33
  %31 = load ptr, ptr %3, align 8, !tbaa !4
  %32 = getelementptr inbounds nuw %struct.AVCodecContext, ptr %31, i32 0, i32 69
  store i32 %30, ptr %32, align 8, !tbaa !34
  %33 = load ptr, ptr %3, align 8, !tbaa !4
  %34 = getelementptr inbounds nuw %struct.AVCodecContext, ptr %33, i32 0, i32 69
  %35 = load i32, ptr %34, align 8, !tbaa !34
  %36 = icmp slt i32 %35, 1
  br i1 %36, label %37, label %38

37:                                               ; preds = %25
  store i32 -1094995529, ptr %2, align 4
  store i32 1, ptr %5, align 4
  br label %180

38:                                               ; preds = %25
  %39 = load ptr, ptr %3, align 8, !tbaa !4
  %40 = getelementptr inbounds nuw %struct.AVCodecContext, ptr %39, i32 0, i32 71
  call void @av_channel_layout_uninit(ptr noundef %40)
  %41 = load ptr, ptr %3, align 8, !tbaa !4
  %42 = getelementptr inbounds nuw %struct.AVCodecContext, ptr %41, i32 0, i32 71
  %43 = getelementptr inbounds nuw %struct.AVChannelLayout, ptr %42, i32 0, i32 0
  store i32 0, ptr %43, align 8, !tbaa !35
  %44 = load ptr, ptr %3, align 8, !tbaa !4
  %45 = getelementptr inbounds nuw %struct.AVCodecContext, ptr %44, i32 0, i32 12
  %46 = load ptr, ptr %45, align 8, !tbaa !32
  %47 = getelementptr inbounds i8, ptr %46, i64 3
  %48 = load i8, ptr %47, align 1, !tbaa !33
  %49 = zext i8 %48 to i32
  %50 = load ptr, ptr %3, align 8, !tbaa !4
  %51 = getelementptr inbounds nuw %struct.AVCodecContext, ptr %50, i32 0, i32 71
  %52 = getelementptr inbounds nuw %struct.AVChannelLayout, ptr %51, i32 0, i32 1
  store i32 %49, ptr %52, align 4, !tbaa !36
  %53 = load ptr, ptr %3, align 8, !tbaa !4
  %54 = getelementptr inbounds nuw %struct.AVCodecContext, ptr %53, i32 0, i32 71
  %55 = getelementptr inbounds nuw %struct.AVChannelLayout, ptr %54, i32 0, i32 1
  %56 = load i32, ptr %55, align 4, !tbaa !36
  %57 = icmp slt i32 %56, 1
  br i1 %57, label %58, label %59

58:                                               ; preds = %38
  store i32 -1094995529, ptr %2, align 4
  store i32 1, ptr %5, align 4
  br label %180

59:                                               ; preds = %38
  %60 = load ptr, ptr %3, align 8, !tbaa !4
  %61 = getelementptr inbounds nuw %struct.AVCodecContext, ptr %60, i32 0, i32 71
  %62 = getelementptr inbounds nuw %struct.AVChannelLayout, ptr %61, i32 0, i32 1
  %63 = load i32, ptr %62, align 4, !tbaa !36
  %64 = sext i32 %63 to i64
  %65 = icmp ugt i64 %64, 2
  br i1 %65, label %66, label %67

66:                                               ; preds = %59
  store i32 -1094995529, ptr %2, align 4
  store i32 1, ptr %5, align 4
  br label %180

67:                                               ; preds = %59
  %68 = load ptr, ptr %4, align 8, !tbaa !29
  %69 = getelementptr inbounds nuw %struct.OSQContext, ptr %68, i32 0, i32 5
  store i32 1, ptr %69, align 8, !tbaa !37
  %70 = load ptr, ptr %3, align 8, !tbaa !4
  %71 = getelementptr inbounds nuw %struct.AVCodecContext, ptr %70, i32 0, i32 12
  %72 = load ptr, ptr %71, align 8, !tbaa !32
  %73 = getelementptr inbounds i8, ptr %72, i64 2
  %74 = load i8, ptr %73, align 1, !tbaa !33
  %75 = zext i8 %74 to i32
  switch i32 %75, label %87 [
    i32 8, label %76
    i32 16, label %79
    i32 20, label %82
    i32 24, label %82
  ]

76:                                               ; preds = %67
  %77 = load ptr, ptr %3, align 8, !tbaa !4
  %78 = getelementptr inbounds nuw %struct.AVCodecContext, ptr %77, i32 0, i32 70
  store i32 5, ptr %78, align 4, !tbaa !41
  br label %88

79:                                               ; preds = %67
  %80 = load ptr, ptr %3, align 8, !tbaa !4
  %81 = getelementptr inbounds nuw %struct.AVCodecContext, ptr %80, i32 0, i32 70
  store i32 6, ptr %81, align 4, !tbaa !41
  br label %88

82:                                               ; preds = %67, %67
  %83 = load ptr, ptr %4, align 8, !tbaa !29
  %84 = getelementptr inbounds nuw %struct.OSQContext, ptr %83, i32 0, i32 5
  store i32 256, ptr %84, align 8, !tbaa !37
  %85 = load ptr, ptr %3, align 8, !tbaa !4
  %86 = getelementptr inbounds nuw %struct.AVCodecContext, ptr %85, i32 0, i32 70
  store i32 7, ptr %86, align 4, !tbaa !41
  br label %88

87:                                               ; preds = %67
  store i32 -1094995529, ptr %2, align 4
  store i32 1, ptr %5, align 4
  br label %180

88:                                               ; preds = %82, %79, %76
  %89 = load ptr, ptr %3, align 8, !tbaa !4
  %90 = getelementptr inbounds nuw %struct.AVCodecContext, ptr %89, i32 0, i32 12
  %91 = load ptr, ptr %90, align 8, !tbaa !32
  %92 = getelementptr inbounds i8, ptr %91, i64 2
  %93 = load i8, ptr %92, align 1, !tbaa !33
  %94 = zext i8 %93 to i32
  %95 = load ptr, ptr %3, align 8, !tbaa !4
  %96 = getelementptr inbounds nuw %struct.AVCodecContext, ptr %95, i32 0, i32 115
  store i32 %94, ptr %96, align 4, !tbaa !42
  %97 = load ptr, ptr %3, align 8, !tbaa !4
  %98 = getelementptr inbounds nuw %struct.AVCodecContext, ptr %97, i32 0, i32 12
  %99 = load ptr, ptr %98, align 8, !tbaa !32
  %100 = getelementptr inbounds i8, ptr %99, i64 16
  %101 = load i64, ptr %100, align 1, !tbaa !33
  %102 = load ptr, ptr %4, align 8, !tbaa !29
  %103 = getelementptr inbounds nuw %struct.OSQContext, ptr %102, i32 0, i32 8
  store i64 %101, ptr %103, align 8, !tbaa !43
  %104 = load ptr, ptr %3, align 8, !tbaa !4
  %105 = getelementptr inbounds nuw %struct.AVCodecContext, ptr %104, i32 0, i32 12
  %106 = load ptr, ptr %105, align 8, !tbaa !32
  %107 = getelementptr inbounds i8, ptr %106, i64 8
  %108 = load i16, ptr %107, align 1, !tbaa !33
  %109 = zext i16 %108 to i32
  %110 = load ptr, ptr %4, align 8, !tbaa !29
  %111 = getelementptr inbounds nuw %struct.OSQContext, ptr %110, i32 0, i32 7
  store i32 %109, ptr %111, align 8, !tbaa !44
  %112 = load ptr, ptr %4, align 8, !tbaa !29
  %113 = getelementptr inbounds nuw %struct.OSQContext, ptr %112, i32 0, i32 7
  %114 = load i32, ptr %113, align 8, !tbaa !44
  %115 = mul nsw i32 %114, 16
  %116 = add nsw i32 %115, 1024
  %117 = load ptr, ptr %3, align 8, !tbaa !4
  %118 = getelementptr inbounds nuw %struct.AVCodecContext, ptr %117, i32 0, i32 71
  %119 = getelementptr inbounds nuw %struct.AVChannelLayout, ptr %118, i32 0, i32 1
  %120 = load i32, ptr %119, align 4, !tbaa !36
  %121 = mul nsw i32 %116, %120
  %122 = sext i32 %121 to i64
  %123 = load ptr, ptr %4, align 8, !tbaa !29
  %124 = getelementptr inbounds nuw %struct.OSQContext, ptr %123, i32 0, i32 3
  store i64 %122, ptr %124, align 8, !tbaa !45
  %125 = load ptr, ptr %4, align 8, !tbaa !29
  %126 = getelementptr inbounds nuw %struct.OSQContext, ptr %125, i32 0, i32 3
  %127 = load i64, ptr %126, align 8, !tbaa !45
  %128 = add i64 %127, 64
  %129 = call noalias ptr @av_calloc(i64 noundef %128, i64 noundef 1)
  %130 = load ptr, ptr %4, align 8, !tbaa !29
  %131 = getelementptr inbounds nuw %struct.OSQContext, ptr %130, i32 0, i32 2
  store ptr %129, ptr %131, align 8, !tbaa !46
  %132 = load ptr, ptr %4, align 8, !tbaa !29
  %133 = getelementptr inbounds nuw %struct.OSQContext, ptr %132, i32 0, i32 2
  %134 = load ptr, ptr %133, align 8, !tbaa !46
  %135 = icmp ne ptr %134, null
  br i1 %135, label %137, label %136

136:                                              ; preds = %88
  store i32 -12, ptr %2, align 4
  store i32 1, ptr %5, align 4
  br label %180

137:                                              ; preds = %88
  call void @llvm.lifetime.start.p0(i64 4, ptr %6) #10
  store i32 0, ptr %6, align 4, !tbaa !47
  br label %138

138:                                              ; preds = %167, %137
  %139 = load i32, ptr %6, align 4, !tbaa !47
  %140 = load ptr, ptr %3, align 8, !tbaa !4
  %141 = getelementptr inbounds nuw %struct.AVCodecContext, ptr %140, i32 0, i32 71
  %142 = getelementptr inbounds nuw %struct.AVChannelLayout, ptr %141, i32 0, i32 1
  %143 = load i32, ptr %142, align 4, !tbaa !36
  %144 = icmp slt i32 %139, %143
  br i1 %144, label %146, label %145

145:                                              ; preds = %138
  store i32 3, ptr %5, align 4
  br label %170

146:                                              ; preds = %138
  %147 = load ptr, ptr %4, align 8, !tbaa !29
  %148 = getelementptr inbounds nuw %struct.OSQContext, ptr %147, i32 0, i32 7
  %149 = load i32, ptr %148, align 8, !tbaa !44
  %150 = add nsw i32 %149, 5
  %151 = sext i32 %150 to i64
  %152 = call noalias ptr @av_calloc(i64 noundef %151, i64 noundef 4)
  %153 = load ptr, ptr %4, align 8, !tbaa !29
  %154 = getelementptr inbounds nuw %struct.OSQContext, ptr %153, i32 0, i32 9
  %155 = load i32, ptr %6, align 4, !tbaa !47
  %156 = sext i32 %155 to i64
  %157 = getelementptr inbounds [2 x ptr], ptr %154, i64 0, i64 %156
  store ptr %152, ptr %157, align 8, !tbaa !48
  %158 = load ptr, ptr %4, align 8, !tbaa !29
  %159 = getelementptr inbounds nuw %struct.OSQContext, ptr %158, i32 0, i32 9
  %160 = load i32, ptr %6, align 4, !tbaa !47
  %161 = sext i32 %160 to i64
  %162 = getelementptr inbounds [2 x ptr], ptr %159, i64 0, i64 %161
  %163 = load ptr, ptr %162, align 8, !tbaa !48
  %164 = icmp ne ptr %163, null
  br i1 %164, label %166, label %165

165:                                              ; preds = %146
  store i32 -12, ptr %2, align 4
  store i32 1, ptr %5, align 4
  br label %170

166:                                              ; preds = %146
  br label %167

167:                                              ; preds = %166
  %168 = load i32, ptr %6, align 4, !tbaa !47
  %169 = add nsw i32 %168, 1
  store i32 %169, ptr %6, align 4, !tbaa !47
  br label %138, !llvm.loop !49

170:                                              ; preds = %165, %145
  call void @llvm.lifetime.end.p0(i64 4, ptr %6) #10
  %171 = load i32, ptr %5, align 4
  switch i32 %171, label %180 [
    i32 3, label %172
  ]

172:                                              ; preds = %170
  %173 = load ptr, ptr %3, align 8, !tbaa !4
  %174 = getelementptr inbounds nuw %struct.AVCodecContext, ptr %173, i32 0, i32 7
  %175 = load ptr, ptr %174, align 8, !tbaa !51
  %176 = getelementptr inbounds nuw %struct.AVCodecInternal, ptr %175, i32 0, i32 6
  %177 = load ptr, ptr %176, align 8, !tbaa !52
  %178 = load ptr, ptr %4, align 8, !tbaa !29
  %179 = getelementptr inbounds nuw %struct.OSQContext, ptr %178, i32 0, i32 10
  store ptr %177, ptr %179, align 8, !tbaa !58
  store i32 0, ptr %2, align 4
  store i32 1, ptr %5, align 4
  br label %180

180:                                              ; preds = %172, %170, %136, %87, %66, %58, %37, %23, %14
  call void @llvm.lifetime.end.p0(i64 8, ptr %4) #10
  %181 = load i32, ptr %2, align 4
  ret i32 %181
}