; Function Attrs: cold nounwind optsize uwtable
define internal range(i32 -1094995529, 1) i32 @osq_init(ptr noundef %0) #0 {
  %2 = getelementptr inbounds nuw i8, ptr %0, i64 32
  %3 = load ptr, ptr %2, align 8, !tbaa !4
  %4 = getelementptr inbounds nuw i8, ptr %0, i64 80
  %5 = load i32, ptr %4, align 8, !tbaa !27
  %6 = icmp slt i32 %5, 48
  br i1 %6, label %.loopexit, label %7

7:                                                ; preds = %1
  %8 = getelementptr inbounds nuw i8, ptr %0, i64 72
  %9 = load ptr, ptr %8, align 8, !tbaa !28
  %10 = load i8, ptr %9, align 1, !tbaa !29
  %.not = icmp eq i8 %10, 1
  br i1 %.not, label %12, label %11

11:                                               ; preds = %7
  tail call void (ptr, i32, ptr, ...) @av_log(ptr noundef nonnull %0, i32 noundef 16, ptr noundef nonnull @.str.2) #8
  br label %.loopexit

12:                                               ; preds = %7
  %13 = getelementptr inbounds nuw i8, ptr %9, i64 4
  %14 = load i32, ptr %13, align 1, !tbaa !29
  %15 = getelementptr inbounds nuw i8, ptr %0, i64 344
  store i32 %14, ptr %15, align 8, !tbaa !30
  %16 = icmp slt i32 %14, 1
  br i1 %16, label %.loopexit, label %17

17:                                               ; preds = %12
  %18 = getelementptr inbounds nuw i8, ptr %0, i64 352
  tail call void @av_channel_layout_uninit(ptr noundef nonnull %18) #8
  store i32 0, ptr %18, align 8, !tbaa !31
  %19 = load ptr, ptr %8, align 8, !tbaa !28
  %20 = getelementptr inbounds nuw i8, ptr %19, i64 3
  %21 = load i8, ptr %20, align 1, !tbaa !29
  %22 = zext i8 %21 to i32
  %23 = getelementptr inbounds nuw i8, ptr %0, i64 356
  store i32 %22, ptr %23, align 4, !tbaa !32
  %24 = add i8 %21, -3
  %or.cond = icmp ult i8 %24, -2
  br i1 %or.cond, label %.loopexit, label %25

25:                                               ; preds = %17
  %26 = getelementptr inbounds nuw i8, ptr %3, i64 168
  store i32 1, ptr %26, align 8, !tbaa !33
  %27 = getelementptr inbounds nuw i8, ptr %19, i64 2
  %28 = load i8, ptr %27, align 1, !tbaa !29
  %29 = zext i8 %28 to i32
  %30 = add nsw i32 %29, -8
  %31 = tail call i32 @llvm.fshl.i32(i32 %30, i32 %30, i32 30)
  switch i32 %31, label %.loopexit [
    i32 0, label %34
    i32 2, label %32
    i32 3, label %33
    i32 4, label %33
  ]

32:                                               ; preds = %25
  br label %34

33:                                               ; preds = %25, %25
  store i32 256, ptr %26, align 8, !tbaa !33
  br label %34

34:                                               ; preds = %25, %33, %32
  %.sink = phi i32 [ 7, %33 ], [ 6, %32 ], [ 5, %25 ]
  %35 = getelementptr inbounds nuw i8, ptr %0, i64 348
  store i32 %.sink, ptr %35, align 4, !tbaa !37
  %36 = load i8, ptr %27, align 1, !tbaa !29
  %37 = zext i8 %36 to i32
  %38 = getelementptr inbounds nuw i8, ptr %0, i64 652
  store i32 %37, ptr %38, align 4, !tbaa !38
  %39 = getelementptr inbounds nuw i8, ptr %19, i64 16
  %40 = load i64, ptr %39, align 1, !tbaa !29
  %41 = getelementptr inbounds nuw i8, ptr %3, i64 184
  store i64 %40, ptr %41, align 8, !tbaa !39
  %42 = getelementptr inbounds nuw i8, ptr %19, i64 8
  %43 = load i16, ptr %42, align 1, !tbaa !29
  %44 = zext i16 %43 to i32
  %45 = getelementptr inbounds nuw i8, ptr %3, i64 176
  store i32 %44, ptr %45, align 8, !tbaa !40
  %46 = shl nuw nsw i32 %44, 4
  %47 = add nuw nsw i32 %46, 1024
  %48 = mul nuw nsw i32 %47, %22
  %49 = zext nneg i32 %48 to i64
  %50 = getelementptr inbounds nuw i8, ptr %3, i64 152
  store i64 %49, ptr %50, align 8, !tbaa !41
  %51 = add nuw nsw i64 %49, 64
  %52 = tail call noalias ptr @av_calloc(i64 noundef %51, i64 noundef 1) #8
  %53 = getelementptr inbounds nuw i8, ptr %3, i64 144
  store ptr %52, ptr %53, align 8, !tbaa !42
  %.not45 = icmp eq ptr %52, null
  br i1 %.not45, label %.loopexit, label %.preheader

.preheader:                                       ; preds = %34
  %54 = load i32, ptr %23, align 4, !tbaa !32
  %.not4748 = icmp sgt i32 %54, 0
  br i1 %.not4748, label %.lr.ph, label %.critedge

.lr.ph:                                           ; preds = %.preheader
  %55 = getelementptr inbounds nuw i8, ptr %3, i64 192
  br label %59

56:                                               ; preds = %59
  %indvars.iv.next = add nuw nsw i64 %indvars.iv, 1
  %57 = load i32, ptr %23, align 4, !tbaa !32
  %58 = sext i32 %57 to i64
  %.not47 = icmp slt i64 %indvars.iv.next, %58
  br i1 %.not47, label %59, label %.critedge, !llvm.loop !43

59:                                               ; preds = %.lr.ph, %56
  %indvars.iv = phi i64 [ 0, %.lr.ph ], [ %indvars.iv.next, %56 ]
  %60 = load i32, ptr %45, align 8, !tbaa !40
  %61 = add nsw i32 %60, 5
  %62 = sext i32 %61 to i64
  %63 = tail call noalias ptr @av_calloc(i64 noundef %62, i64 noundef 4) #8
  %64 = getelementptr inbounds nuw [2 x ptr], ptr %55, i64 0, i64 %indvars.iv
  store ptr %63, ptr %64, align 8, !tbaa !45
  %.not46 = icmp eq ptr %63, null
  br i1 %.not46, label %.loopexit, label %56

.critedge:                                        ; preds = %56, %.preheader
  %65 = getelementptr inbounds nuw i8, ptr %0, i64 40
  %66 = load ptr, ptr %65, align 8, !tbaa !46
  %67 = getelementptr inbounds nuw i8, ptr %66, i64 40
  %68 = load ptr, ptr %67, align 8, !tbaa !47
  %69 = getelementptr inbounds nuw i8, ptr %3, i64 208
  store ptr %68, ptr %69, align 8, !tbaa !53
  br label %.loopexit

.loopexit:                                        ; preds = %59, %34, %25, %17, %12, %1, %.critedge, %11
  %.043 = phi i32 [ -1094995529, %11 ], [ 0, %.critedge ], [ -22, %1 ], [ -1094995529, %12 ], [ -1094995529, %17 ], [ -1094995529, %25 ], [ -12, %34 ], [ -12, %59 ]
  ret i32 %.043
}